; ModuleID = '10/319.c'
source_filename = "10/319.c"
target datalayout = "e-m:e-p270:32:32-p271:32:32-p272:64:64-i64:64-f80:128-n8:16:32:64-S128"
target triple = "x86_64-pc-linux-gnu"

@.str = private unnamed_addr constant [3 x i8] c"%d\00", align 1

; Function Attrs: noinline nounwind uwtable
define dso_local void @main() #0 {
  %1 = alloca i32, align 4
  %2 = alloca i32, align 4
  %3 = alloca i32, align 4
  %4 = alloca i32, align 4
  %5 = alloca i32*, align 8
  %6 = alloca i32*, align 8
  store i32 1, i32* %2, align 4
  store i32 0, i32* %3, align 4
  store i32 0, i32* %4, align 4
  %7 = call i32 (i8*, ...) @__isoc99_scanf(i8* getelementptr inbounds ([3 x i8], [3 x i8]* @.str, i64 0, i64 0), i32* %1)
  %8 = load i32, i32* %1, align 4
  %9 = sext i32 %8 to i64
  %10 = mul i64 %9, 4
  %11 = call noalias i8* @malloc(i64 %10) #3
  %12 = bitcast i8* %11 to i32*
  store i32* %12, i32** %5, align 8
  %13 = load i32, i32* %1, align 4
  %14 = sext i32 %13 to i64
  %15 = mul i64 %14, 4
  %16 = call noalias i8* @malloc(i64 %15) #3
  %17 = bitcast i8* %16 to i32*
  store i32* %17, i32** %6, align 8
  store i32 0, i32* %3, align 4
  br label %18

18:                                               ; preds = %32, %0
  %19 = load i32, i32* %3, align 4
  %20 = load i32, i32* %1, align 4
  %21 = icmp slt i32 %19, %20
  br i1 %21, label %22, label %35

22:                                               ; preds = %18
  %23 = load i32*, i32** %5, align 8
  %24 = load i32, i32* %3, align 4
  %25 = sext i32 %24 to i64
  %26 = getelementptr inbounds i32, i32* %23, i64 %25
  %27 = call i32 (i8*, ...) @__isoc99_scanf(i8* getelementptr inbounds ([3 x i8], [3 x i8]* @.str, i64 0, i64 0), i32* %26)
  %28 = load i32*, i32** %6, align 8
  %29 = load i32, i32* %3, align 4
  %30 = sext i32 %29 to i64
  %31 = getelementptr inbounds i32, i32* %28, i64 %30
  store i32 1, i32* %31, align 4
  br label %32

32:                                               ; preds = %22
  %33 = load i32, i32* %3, align 4
  %34 = add nsw i32 %33, 1
  store i32 %34, i32* %3, align 4
  br label %18

35:                                               ; preds = %18
  %36 = load i32, i32* %1, align 4
  %37 = sub nsw i32 %36, 1
  store i32 %37, i32* %3, align 4
  br label %38

38:                                               ; preds = %96, %35
  %39 = load i32, i32* %3, align 4
  %40 = icmp sge i32 %39, 0
  br i1 %40, label %41, label %99

41:                                               ; preds = %38
  %42 = load i32, i32* %1, align 4
  %43 = sub nsw i32 %42, 1
  store i32 %43, i32* %4, align 4
  br label %44

44:                                               ; preds = %92, %41
  %45 = load i32, i32* %4, align 4
  %46 = load i32, i32* %3, align 4
  %47 = icmp sgt i32 %45, %46
  br i1 %47, label %48, label %95

48:                                               ; preds = %44
  %49 = load i32*, i32** %5, align 8
  %50 = load i32, i32* %3, align 4
  %51 = sext i32 %50 to i64
  %52 = getelementptr inbounds i32, i32* %49, i64 %51
  %53 = load i32, i32* %52, align 4
  %54 = load i32*, i32** %5, align 8
  %55 = load i32, i32* %4, align 4
  %56 = sext i32 %55 to i64
  %57 = getelementptr inbounds i32, i32* %54, i64 %56
  %58 = load i32, i32* %57, align 4
  %59 = icmp sge i32 %53, %58
  br i1 %59, label %60, label %91

60:                                               ; preds = %48
  %61 = load i32*, i32** %6, align 8
  %62 = load i32, i32* %3, align 4
  %63 = sext i32 %62 to i64
  %64 = getelementptr inbounds i32, i32* %61, i64 %63
  %65 = load i32, i32* %64, align 4
  %66 = load i32*, i32** %6, align 8
  %67 = load i32, i32* %4, align 4
  %68 = sext i32 %67 to i64
  %69 = getelementptr inbounds i32, i32* %66, i64 %68
  %70 = load i32, i32* %69, align 4
  %71 = icmp sgt i32 %65, %70
  br i1 %71, label %72, label %78

72:                                               ; preds = %60
  %73 = load i32*, i32** %6, align 8
  %74 = load i32, i32* %3, align 4
  %75 = sext i32 %74 to i64
  %76 = getelementptr inbounds i32, i32* %73, i64 %75
  %77 = load i32, i32* %76, align 4
  br label %85

78:                                               ; preds = %60
  %79 = load i32*, i32** %6, align 8
  %80 = load i32, i32* %4, align 4
  %81 = sext i32 %80 to i64
  %82 = getelementptr inbounds i32, i32* %79, i64 %81
  %83 = load i32, i32* %82, align 4
  %84 = add nsw i32 %83, 1
  br label %85

85:                                               ; preds = %78, %72
  %86 = phi i32 [ %77, %72 ], [ %84, %78 ]
  %87 = load i32*, i32** %6, align 8
  %88 = load i32, i32* %3, align 4
  %89 = sext i32 %88 to i64
  %90 = getelementptr inbounds i32, i32* %87, i64 %89
  store i32 %86, i32* %90, align 4
  br label %91

91:                                               ; preds = %85, %48
  br label %92

92:                                               ; preds = %91
  %93 = load i32, i32* %4, align 4
  %94 = add nsw i32 %93, -1
  store i32 %94, i32* %4, align 4
  br label %44

95:                                               ; preds = %44
  br label %96

96:                                               ; preds = %95
  %97 = load i32, i32* %3, align 4
  %98 = add nsw i32 %97, -1
  store i32 %98, i32* %3, align 4
  br label %38

99:                                               ; preds = %38
  store i32 0, i32* %3, align 4
  br label %100

100:                                              ; preds = %122, %99
  %101 = load i32, i32* %3, align 4
  %102 = load i32, i32* %1, align 4
  %103 = icmp slt i32 %101, %102
  br i1 %103, label %104, label %125

104:                                              ; preds = %100
  %105 = load i32, i32* %2, align 4
  %106 = load i32*, i32** %6, align 8
  %107 = load i32, i32* %3, align 4
  %108 = sext i32 %107 to i64
  %109 = getelementptr inbounds i32, i32* %106, i64 %108
  %110 = load i32, i32* %109, align 4
  %111 = icmp sgt i32 %105, %110
  br i1 %111, label %112, label %114

112:                                              ; preds = %104
  %113 = load i32, i32* %2, align 4
  br label %120

114:                                              ; preds = %104
  %115 = load i32*, i32** %6, align 8
  %116 = load i32, i32* %3, align 4
  %117 = sext i32 %116 to i64
  %118 = getelementptr inbounds i32, i32* %115, i64 %117
  %119 = load i32, i32* %118, align 4
  br label %120

120:                                              ; preds = %114, %112
  %121 = phi i32 [ %113, %112 ], [ %119, %114 ]
  store i32 %121, i32* %2, align 4
  br label %122

122:                                              ; preds = %120
  %123 = load i32, i32* %3, align 4
  %124 = add nsw i32 %123, 1
  store i32 %124, i32* %3, align 4
  br label %100

125:                                              ; preds = %100
  %126 = load i32, i32* %2, align 4
  %127 = call i32 (i8*, ...) @printf(i8* getelementptr inbounds ([3 x i8], [3 x i8]* @.str, i64 0, i64 0), i32 %126)
  ret void
}

declare dso_local i32 @__isoc99_scanf(i8*, ...) #1

; Function Attrs: nounwind
declare dso_local noalias i8* @malloc(i64) #2

declare dso_local i32 @printf(i8*, ...) #1


!llvm.module.flags = !{!0}
!llvm.ident = !{!1}

!0 = !{i32 1, !"wchar_size", i32 4}
!1 = !{!"clang version 10.0.0-4ubuntu1 "}
